target datalayout = "e-m:e-p270:32:32-p271:32:32-p272:64:64-i64:64-i128:128-f80:128-n8:16:32:64-S128"
target triple = "x86_64-unknown-linux-gnu"

%"class.std::set.0" = type { %"class.std::_Rb_tree.1" }
%"class.std::_Rb_tree.1" = type { %"struct.std::_Rb_tree<QuantLib::Observer *, QuantLib::Observer *, std::_Identity<QuantLib::Observer *>, std::less<QuantLib::Observer *>>::_Rb_tree_impl" }
%"struct.std::_Rb_tree<QuantLib::Observer *, QuantLib::Observer *, std::_Identity<QuantLib::Observer *>, std::less<QuantLib::Observer *>>::_Rb_tree_impl" = type { [8 x i8], %"struct.std::_Rb_tree_header" }
%"struct.std::_Rb_tree_header" = type { %"struct.std::_Rb_tree_node_base", i64 }
%"struct.std::_Rb_tree_node_base" = type { i32, ptr, ptr, ptr }
%"class.QuantLib::Date" = type { i64 }
%"class.boost::detail::shared_count" = type { ptr }
%"class.std::set" = type { %"class.std::_Rb_tree" }
%"class.std::_Rb_tree" = type { %"struct.std::_Rb_tree<boost::shared_ptr<QuantLib::Observable>, boost::shared_ptr<QuantLib::Observable>, std::_Identity<boost::shared_ptr<QuantLib::Observable>>, std::less<boost::shared_ptr<QuantLib::Observable>>>::_Rb_tree_impl" }
%"struct.std::_Rb_tree<boost::shared_ptr<QuantLib::Observable>, boost::shared_ptr<QuantLib::Observable>, std::_Identity<boost::shared_ptr<QuantLib::Observable>>, std::less<boost::shared_ptr<QuantLib::Observable>>>::_Rb_tree_impl" = type { [8 x i8], %"struct.std::_Rb_tree_header" }
%"class.QuantLib::Observable" = type { ptr, %"class.std::set.0" }
%"class.QuantLib::Handle.57" = type { %"class.boost::shared_ptr.58" }
%"class.boost::shared_ptr.58" = type { ptr, %"class.boost::detail::shared_count" }
%"class.boost::shared_ptr.61" = type { ptr, %"class.boost::detail::shared_count" }
%"class.QuantLib::LognormalCmsSpreadPricer" = type { %"class.QuantLib::CmsSpreadCouponPricer.base", %"class.boost::shared_ptr.59", %"class.QuantLib::Handle", ptr, %"class.QuantLib::Date", %"class.QuantLib::Date", %"class.QuantLib::Date", double, double, double, double, double, %"class.boost::shared_ptr.60", %"class.boost::shared_ptr.61", %"class.boost::shared_ptr.62", double, double, double, double, double, double, double, double, double, double, double, i8, i32, double, double, double, double, double, double, double, double, double, double, double, double, double, double, i32, %"class.boost::shared_ptr.63", %"class.boost::shared_ptr.63", %"class.QuantLib::Observer", %"class.QuantLib::Observable" }
%"class.QuantLib::CmsSpreadCouponPricer.base" = type { %"class.QuantLib::FloatingRateCouponPricer.base", %"class.QuantLib::Handle.57" }
%"class.QuantLib::FloatingRateCouponPricer.base" = type { ptr }
%"class.boost::shared_ptr.59" = type { ptr, %"class.boost::detail::shared_count" }
%"class.QuantLib::Handle" = type { %"class.boost::shared_ptr.51" }
%"class.boost::shared_ptr.51" = type { ptr, %"class.boost::detail::shared_count" }
%"class.boost::shared_ptr.60" = type { ptr, %"class.boost::detail::shared_count" }
%"class.boost::shared_ptr.62" = type { ptr, %"class.boost::detail::shared_count" }
%"class.boost::shared_ptr.63" = type { ptr, %"class.boost::detail::shared_count" }
%"class.QuantLib::Observer" = type { ptr, %"class.std::set" }

; Function Attrs: mustprogress uwtable
define noundef double @_ZNK8QuantLib24LognormalCmsSpreadPricer12floorletRateEd(ptr noundef nonnull align 8 dereferenceable(424) %this, double noundef %effectiveFloor) unnamed_addr #2 align 2 {
entry:
  %this.addr = alloca ptr, align 8
  %effectiveFloor.addr = alloca double, align 8
  store ptr %this, ptr %this.addr, align 8, !tbaa !3
  store double %effectiveFloor, ptr %effectiveFloor.addr, align 8, !tbaa !20
  %this1 = load ptr, ptr %this.addr, align 8
  %0 = load double, ptr %effectiveFloor.addr, align 8, !tbaa !20
  %vtable = load ptr, ptr %this1, align 8, !tbaa !12
  %vfn = getelementptr inbounds ptr, ptr %vtable, i64 6
  %1 = load ptr, ptr %vfn, align 8
  %call = call noundef double %1(ptr noundef nonnull align 8 dereferenceable(424) %this1, double noundef %0)
  %coupon_ = getelementptr inbounds nuw %"class.QuantLib::LognormalCmsSpreadPricer", ptr %this1, i32 0, i32 3
  %2 = load ptr, ptr %coupon_, align 8, !tbaa !71
  %call2 = call noundef double @_ZNK8QuantLib6Coupon13accrualPeriodEv(ptr noundef nonnull align 8 dereferenceable(88) %2)
  %discount_ = getelementptr inbounds nuw %"class.QuantLib::LognormalCmsSpreadPricer", ptr %this1, i32 0, i32 11
  %3 = load double, ptr %discount_, align 8, !tbaa !75
  %mul = fmul double %call2, %3
  %div = fdiv double %call, %mul
  ret double %div
}